target datalayout = "e-m:e-p270:32:32-p271:32:32-p272:64:64-i64:64-i128:128-f80:128-n8:16:32:64-S128"
target triple = "x86_64-unknown-linux-gnu"

%"class.node::tracing::InternalTraceBuffer" = type { %"class.node::MutexBase", i8, i64, ptr, %"class.std::vector", i64, i32, i32 }
%"class.node::MutexBase" = type { %union.pthread_mutex_t }
%union.pthread_mutex_t = type { %struct.__pthread_mutex_s }
%struct.__pthread_mutex_s = type { i32, i32, i32, i32, i32, i16, i16, %struct.__pthread_internal_list }
%struct.__pthread_internal_list = type { ptr, ptr }
%"class.std::vector" = type { %"struct.std::_Vector_base" }
%"struct.std::_Vector_base" = type { %"struct.std::_Vector_base<std::unique_ptr<v8::platform::tracing::TraceBufferChunk>, std::allocator<std::unique_ptr<v8::platform::tracing::TraceBufferChunk>>>::_Vector_impl" }
%"struct.std::_Vector_base<std::unique_ptr<v8::platform::tracing::TraceBufferChunk>, std::allocator<std::unique_ptr<v8::platform::tracing::TraceBufferChunk>>>::_Vector_impl" = type { %"struct.std::_Vector_base<std::unique_ptr<v8::platform::tracing::TraceBufferChunk>, std::allocator<std::unique_ptr<v8::platform::tracing::TraceBufferChunk>>>::_Vector_impl_data" }
%"struct.std::_Vector_base<std::unique_ptr<v8::platform::tracing::TraceBufferChunk>, std::allocator<std::unique_ptr<v8::platform::tracing::TraceBufferChunk>>>::_Vector_impl_data" = type { ptr, ptr, ptr }
%"class.node::tracing::NodeTraceBuffer" = type { %"class.v8::platform::tracing::TraceBuffer", ptr, %struct.uv_async_s, %struct.uv_async_s, i8, %"class.node::MutexBase", %"class.node::ConditionVariableBase", %"struct.std::atomic", %"class.node::tracing::InternalTraceBuffer", %"class.node::tracing::InternalTraceBuffer" }
%"class.v8::platform::tracing::TraceBuffer" = type { ptr }
%struct.uv_async_s = type { ptr, ptr, i32, ptr, %struct.uv__queue, %union.anon.10, ptr, i32, ptr, %struct.uv__queue, i32 }
%union.anon.10 = type { [4 x ptr] }
%struct.uv__queue = type { ptr, ptr }
%"class.node::ConditionVariableBase" = type { %union.pthread_cond_t }
%union.pthread_cond_t = type { %struct.__pthread_cond_s }
%struct.__pthread_cond_s = type { %union.__atomic_wide_counter, %union.__atomic_wide_counter, [2 x i32], [2 x i32], i32, i32, [2 x i32] }
%union.__atomic_wide_counter = type { i64 }
%"struct.std::atomic" = type { %"struct.std::__atomic_base" }
%"struct.std::__atomic_base" = type { ptr }
%"class.node::ContainerOfHelper" = type { ptr }
%class.anon = type { i8 }
%class.anon.48 = type { i8 }

; Function Attrs: mustprogress nounwind uwtable
define linkonce_odr dso_local noundef i64 @_ZN4node8OffsetOfI10uv_async_sNS_7tracing15NodeTraceBufferEEEmMT0_T_(i64 %field) #0 comdat {
entry:
  %field.addr = alloca i64, align 8
  store i64 %field, ptr %field.addr, align 8
  %0 = load i64, ptr %field.addr, align 8
  %memptr.offset = getelementptr inbounds i8, ptr null, i64 %0
  %1 = ptrtoint ptr %memptr.offset to i64
  ret i64 %1
}

; Function Attrs: mustprogress nounwind uwtable
define linkonce_odr dso_local void @_ZN4node17ContainerOfHelperI10uv_async_sNS_7tracing15NodeTraceBufferEEC2EMS3_S1_PS1_(ptr noundef nonnull align 8 dereferenceable(8) %this, i64 %field, ptr noundef %pointer) unnamed_addr #0 comdat align 2 {
entry:
  %this.addr = alloca ptr, align 8
  %field.addr = alloca i64, align 8
  %pointer.addr = alloca ptr, align 8
  store ptr %this, ptr %this.addr, align 8
  store i64 %field, ptr %field.addr, align 8
  store ptr %pointer, ptr %pointer.addr, align 8
  %this1 = load ptr, ptr %this.addr, align 8
  %pointer_ = getelementptr inbounds %"class.node::ContainerOfHelper", ptr %this1, i32 0, i32 0
  %0 = load ptr, ptr %pointer.addr, align 8
  %1 = ptrtoint ptr %0 to i64
  %2 = load i64, ptr %field.addr, align 8
  %call = call noundef i64 @_ZN4node8OffsetOfI10uv_async_sNS_7tracing15NodeTraceBufferEEEmMT0_T_(i64 %2)
  %sub = sub i64 %1, %call
  %3 = inttoptr i64 %sub to ptr
  store ptr %3, ptr %pointer_, align 8
  ret void
}

; Function Attrs: mustprogress nounwind uwtable
define internal noundef ptr @"_ZZZN4node7tracing15NodeTraceBuffer12ExitSignalCbEP10uv_async_sENK3$_0clEP11uv_handle_sENKUlS6_E_cvPFvS6_EEv"(ptr noundef nonnull align 1 dereferenceable(1) %this) #0 align 2 {
entry:
  %this.addr = alloca ptr, align 8
  store ptr %this, ptr %this.addr, align 8
  ret ptr @"_ZZZN4node7tracing15NodeTraceBuffer12ExitSignalCbEP10uv_async_sENK3$_0clEP11uv_handle_sENUlS6_E_8__invokeES6_"
}

; Function Attrs: mustprogress nounwind uwtable
define linkonce_odr dso_local noundef ptr @_ZNK4node17ContainerOfHelperI10uv_async_sNS_7tracing15NodeTraceBufferEEcvPT_IS3_EEv(ptr noundef nonnull align 8 dereferenceable(8) %this) #0 comdat align 2 {
entry:
  %this.addr = alloca ptr, align 8
  store ptr %this, ptr %this.addr, align 8
  %this1 = load ptr, ptr %this.addr, align 8
  %pointer_ = getelementptr inbounds %"class.node::ContainerOfHelper", ptr %this1, i32 0, i32 0
  %0 = load ptr, ptr %pointer_, align 8
  ret ptr %0
}

; Function Attrs: mustprogress nounwind uwtable
define linkonce_odr dso_local ptr @_ZN4node11ContainerOfI10uv_async_sNS_7tracing15NodeTraceBufferEEENS_17ContainerOfHelperIT_T0_EEMS6_S5_PS5_(i64 %field, ptr noundef %pointer) #0 comdat {
entry:
  %retval = alloca %"class.node::ContainerOfHelper", align 8
  %field.addr = alloca i64, align 8
  %pointer.addr = alloca ptr, align 8
  store i64 %field, ptr %field.addr, align 8
  store ptr %pointer, ptr %pointer.addr, align 8
  %0 = load i64, ptr %field.addr, align 8
  %1 = load ptr, ptr %pointer.addr, align 8
  call void @_ZN4node17ContainerOfHelperI10uv_async_sNS_7tracing15NodeTraceBufferEEC2EMS3_S1_PS1_(ptr noundef nonnull align 8 dereferenceable(8) %retval, i64 %0, ptr noundef %1)
  %coerce.dive = getelementptr inbounds %"class.node::ContainerOfHelper", ptr %retval, i32 0, i32 0
  %2 = load ptr, ptr %coerce.dive, align 8
  ret ptr %2
}

; Function Attrs: mustprogress nounwind uwtable
define internal void @"_ZZN4node7tracing15NodeTraceBuffer12ExitSignalCbEP10uv_async_sENK3$_0clEP11uv_handle_s"(ptr noundef nonnull align 1 dereferenceable(1) %this, ptr noundef %signal) #0 align 2 {
entry:
  %this.addr = alloca ptr, align 8
  %signal.addr = alloca ptr, align 8
  %buffer = alloca ptr, align 8
  %ref.tmp = alloca %"class.node::ContainerOfHelper", align 8
  %ref.tmp3 = alloca %class.anon.48, align 1
  store ptr %this, ptr %this.addr, align 8
  store ptr %signal, ptr %signal.addr, align 8
  %0 = load ptr, ptr %signal.addr, align 8
  %call = call ptr @_ZN4node11ContainerOfI10uv_async_sNS_7tracing15NodeTraceBufferEEENS_17ContainerOfHelperIT_T0_EEMS6_S5_PS5_(i64 16, ptr noundef %0)
  %coerce.dive = getelementptr inbounds %"class.node::ContainerOfHelper", ptr %ref.tmp, i32 0, i32 0
  store ptr %call, ptr %coerce.dive, align 8
  %call2 = call noundef ptr @_ZNK4node17ContainerOfHelperI10uv_async_sNS_7tracing15NodeTraceBufferEEcvPT_IS3_EEv(ptr noundef nonnull align 8 dereferenceable(8) %ref.tmp)
  store ptr %call2, ptr %buffer, align 8
  %1 = load ptr, ptr %buffer, align 8
  %exit_signal_ = getelementptr inbounds %"class.node::tracing::NodeTraceBuffer", ptr %1, i32 0, i32 3
  %call4 = call noundef ptr @"_ZZZN4node7tracing15NodeTraceBuffer12ExitSignalCbEP10uv_async_sENK3$_0clEP11uv_handle_sENKUlS6_E_cvPFvS6_EEv"(ptr noundef nonnull align 1 dereferenceable(1) %ref.tmp3) #10
  call void @uv_close(ptr noundef %exit_signal_, ptr noundef %call4)
  ret void
}

; Function Attrs: mustprogress nounwind uwtable
define internal void @"_ZZN4node7tracing15NodeTraceBuffer12ExitSignalCbEP10uv_async_sEN3$_08__invokeEP11uv_handle_s"(ptr noundef %signal) #0 align 2 {
entry:
  %signal.addr = alloca ptr, align 8
  %unused.capture = alloca %class.anon, align 1
  store ptr %signal, ptr %signal.addr, align 8
  %0 = load ptr, ptr %signal.addr, align 8
  call void @"_ZZN4node7tracing15NodeTraceBuffer12ExitSignalCbEP10uv_async_sENK3$_0clEP11uv_handle_s"(ptr noundef nonnull align 1 dereferenceable(1) %unused.capture, ptr noundef %0)
  ret void
}